target datalayout = "e-m:e-p270:32:32-p271:32:32-p272:64:64-i64:64-i128:128-f80:128-n8:16:32:64-S128"
target triple = "x86_64-pc-linux-gnu"

%"class.std::__cxx11::basic_string" = type { %"struct.std::__cxx11::basic_string<char>::_Alloc_hider", i64, %union.anon }
%"struct.std::__cxx11::basic_string<char>::_Alloc_hider" = type { ptr }
%union.anon = type { i64, [8 x i8] }
%"class.rocksdb::Slice" = type { ptr, i64 }
%"struct.rocksdb::BlockCacheTraceRecord" = type <{ i64, %"class.std::__cxx11::basic_string", i8, [7 x i8], i64, i64, %"class.std::__cxx11::basic_string", i32, [4 x i8], i64, i8, i8, i8, [5 x i8], i64, i8, [7 x i8], %"class.std::__cxx11::basic_string", i64, i64, i8, [7 x i8] }>

; Function Attrs: mustprogress nounwind uwtable
define available_externally noundef ptr @_ZNKSt7__cxx1112basic_stringIcSt11char_traitsIcESaIcEE7_M_dataEv(ptr noundef nonnull align 8 dereferenceable(32) %0) #4 align 2 {
  %2 = alloca ptr, align 8
  store ptr %0, ptr %2, align 8, !tbaa !30
  %3 = load ptr, ptr %2, align 8
  %4 = getelementptr inbounds nuw %"class.std::__cxx11::basic_string", ptr %3, i32 0, i32 0
  %5 = getelementptr inbounds nuw %"struct.std::__cxx11::basic_string<char>::_Alloc_hider", ptr %4, i32 0, i32 0
  %6 = load ptr, ptr %5, align 8, !tbaa !227
  ret ptr %6
}

; Function Attrs: inlinehint mustprogress nounwind uwtable
define linkonce_odr noundef i64 @_ZN7rocksdb13DecodeFixed64EPKc(ptr noundef %0) #1 comdat {
  %2 = alloca ptr, align 8
  %3 = alloca i64, align 8
  store ptr %0, ptr %2, align 8, !tbaa !13
  call void @llvm.lifetime.start.p0(i64 8, ptr %3) #5
  %4 = load ptr, ptr %2, align 8, !tbaa !13
  call void @llvm.memcpy.p0.p0.i64(ptr align 8 %3, ptr align 1 %4, i64 8, i1 false)
  %5 = load i64, ptr %3, align 8, !tbaa !4
  call void @llvm.lifetime.end.p0(i64 8, ptr %3) #5
  ret i64 %5
}

; Function Attrs: mustprogress nounwind uwtable
define linkonce_odr noundef ptr @_ZNK7rocksdb5Slice4dataEv(ptr noundef nonnull align 8 dereferenceable(16) %0) #4 comdat align 2 {
  %2 = alloca ptr, align 8
  store ptr %0, ptr %2, align 8, !tbaa !10
  %3 = load ptr, ptr %2, align 8
  %4 = getelementptr inbounds nuw %"class.rocksdb::Slice", ptr %3, i32 0, i32 0
  %5 = load ptr, ptr %4, align 8, !tbaa !15
  ret ptr %5
}

; Function Attrs: mustprogress nounwind uwtable
define linkonce_odr noundef i64 @_ZNK7rocksdb5Slice4sizeEv(ptr noundef nonnull align 8 dereferenceable(16) %0) #4 comdat align 2 {
  %2 = alloca ptr, align 8
  store ptr %0, ptr %2, align 8, !tbaa !10
  %3 = load ptr, ptr %2, align 8
  %4 = getelementptr inbounds nuw %"class.rocksdb::Slice", ptr %3, i32 0, i32 1
  %5 = load i64, ptr %4, align 8, !tbaa !17
  ret i64 %5
}

; Function Attrs: mustprogress nounwind uwtable
define available_externally noundef ptr @_ZNKSt7__cxx1112basic_stringIcSt11char_traitsIcESaIcEE4dataEv(ptr noundef nonnull align 8 dereferenceable(32) %0) #4 align 2 {
  %2 = alloca ptr, align 8
  store ptr %0, ptr %2, align 8, !tbaa !30
  %3 = load ptr, ptr %2, align 8
  %4 = call noundef ptr @_ZNKSt7__cxx1112basic_stringIcSt11char_traitsIcESaIcEE7_M_dataEv(ptr noundef nonnull align 8 dereferenceable(32) %3)
  ret ptr %4
}

; Function Attrs: inlinehint mustprogress nounwind uwtable
define linkonce_odr noundef i64 @_ZN7rocksdb19GetInternalKeySeqnoERKNS_5SliceE(ptr noundef nonnull align 8 dereferenceable(16) %0) #1 comdat {
  %2 = alloca ptr, align 8
  %3 = alloca i64, align 8
  %4 = alloca i64, align 8
  store ptr %0, ptr %2, align 8, !tbaa !10
  call void @llvm.lifetime.start.p0(i64 8, ptr %3) #5
  %5 = load ptr, ptr %2, align 8, !tbaa !10
  %6 = call noundef i64 @_ZNK7rocksdb5Slice4sizeEv(ptr noundef nonnull align 8 dereferenceable(16) %5)
  store i64 %6, ptr %3, align 8, !tbaa !4
  call void @llvm.lifetime.start.p0(i64 8, ptr %4) #5
  %7 = load ptr, ptr %2, align 8, !tbaa !10
  %8 = call noundef ptr @_ZNK7rocksdb5Slice4dataEv(ptr noundef nonnull align 8 dereferenceable(16) %7)
  %9 = load i64, ptr %3, align 8, !tbaa !4
  %10 = getelementptr inbounds nuw i8, ptr %8, i64 %9
  %11 = getelementptr inbounds i8, ptr %10, i64 -8
  %12 = call noundef i64 @_ZN7rocksdb13DecodeFixed64EPKc(ptr noundef %11)
  store i64 %12, ptr %4, align 8, !tbaa !4
  %13 = load i64, ptr %4, align 8, !tbaa !4
  %14 = lshr i64 %13, 8
  call void @llvm.lifetime.end.p0(i64 8, ptr %4) #5
  call void @llvm.lifetime.end.p0(i64 8, ptr %3) #5
  ret i64 %14
}

; Function Attrs: mustprogress nounwind uwtable
define linkonce_odr void @_ZN7rocksdb5SliceC2ERKNSt7__cxx1112basic_stringIcSt11char_traitsIcESaIcEEE(ptr noundef nonnull align 8 dereferenceable(16) %0, ptr noundef nonnull align 8 dereferenceable(32) %1) unnamed_addr #4 comdat align 2 {
  %3 = alloca ptr, align 8
  %4 = alloca ptr, align 8
  store ptr %0, ptr %3, align 8, !tbaa !10
  store ptr %1, ptr %4, align 8, !tbaa !30
  %5 = load ptr, ptr %3, align 8
  %6 = getelementptr inbounds nuw %"class.rocksdb::Slice", ptr %5, i32 0, i32 0
  %7 = load ptr, ptr %4, align 8, !tbaa !30
  %8 = call noundef ptr @_ZNKSt7__cxx1112basic_stringIcSt11char_traitsIcESaIcEE4dataEv(ptr noundef nonnull align 8 dereferenceable(32) %7) #5
  store ptr %8, ptr %6, align 8, !tbaa !15
  %9 = getelementptr inbounds nuw %"class.rocksdb::Slice", ptr %5, i32 0, i32 1
  %10 = load ptr, ptr %4, align 8, !tbaa !30
  %11 = call noundef i64 @_ZNKSt7__cxx1112basic_stringIcSt11char_traitsIcESaIcEE4sizeEv(ptr noundef nonnull align 8 dereferenceable(32) %10) #5
  store i64 %11, ptr %9, align 8, !tbaa !17
  ret void
}

; Function Attrs: mustprogress nounwind uwtable
define available_externally noundef i64 @_ZNKSt7__cxx1112basic_stringIcSt11char_traitsIcESaIcEE4sizeEv(ptr noundef nonnull align 8 dereferenceable(32) %0) #4 align 2 {
  %2 = alloca ptr, align 8
  store ptr %0, ptr %2, align 8, !tbaa !30
  %3 = load ptr, ptr %2, align 8
  %4 = getelementptr inbounds nuw %"class.std::__cxx11::basic_string", ptr %3, i32 0, i32 1
  %5 = load i64, ptr %4, align 8, !tbaa !65
  ret i64 %5
}

; Function Attrs: mustprogress nounwind uwtable
define noundef zeroext i1 @_ZN7rocksdb21BlockCacheTraceHelper15IsGetOrMultiGetENS_17TableReaderCallerE(i8 noundef signext %0) #4 align 2 {
  %2 = alloca i8, align 1
  store i8 %0, ptr %2, align 1, !tbaa !54
  %3 = load i8, ptr %2, align 1, !tbaa !54
  %4 = sext i8 %3 to i32
  %5 = icmp eq i32 %4, 1
  br i1 %5, label %10, label %6

6:                                                ; preds = %1
  %7 = load i8, ptr %2, align 1, !tbaa !54
  %8 = sext i8 %7 to i32
  %9 = icmp eq i32 %8, 2
  br label %10

10:                                               ; preds = %6, %1
  %11 = phi i1 [ true, %1 ], [ %9, %6 ]
  ret i1 %11
}

; Function Attrs: mustprogress uwtable
define noundef i64 @_ZN7rocksdb21BlockCacheTraceHelper17GetSequenceNumberERKNS_21BlockCacheTraceRecordE(ptr noundef nonnull align 8 dereferenceable(185) %0) #6 align 2 {
  %2 = alloca i64, align 8
  %3 = alloca ptr, align 8
  %4 = alloca %"class.rocksdb::Slice", align 8
  store ptr %0, ptr %3, align 8, !tbaa !56
  %5 = load ptr, ptr %3, align 8, !tbaa !56
  %6 = getelementptr inbounds nuw %"struct.rocksdb::BlockCacheTraceRecord", ptr %5, i32 0, i32 10
  %7 = load i8, ptr %6, align 8, !tbaa !58
  %8 = call noundef zeroext i1 @_ZN7rocksdb21BlockCacheTraceHelper15IsGetOrMultiGetENS_17TableReaderCallerE(i8 noundef signext %7)
  br i1 %8, label %10, label %9

9:                                                ; preds = %1
  store i64 0, ptr %2, align 8
  br label %35

10:                                               ; preds = %1
  %11 = load ptr, ptr %3, align 8, !tbaa !56
  %12 = getelementptr inbounds nuw %"struct.rocksdb::BlockCacheTraceRecord", ptr %11, i32 0, i32 10
  %13 = load i8, ptr %12, align 8, !tbaa !58
  %14 = sext i8 %13 to i32
  %15 = icmp eq i32 %14, 2
  br i1 %15, label %16, label %22

16:                                               ; preds = %10
  %17 = load ptr, ptr %3, align 8, !tbaa !56
  %18 = getelementptr inbounds nuw %"struct.rocksdb::BlockCacheTraceRecord", ptr %17, i32 0, i32 17
  %19 = call noundef i64 @_ZNKSt7__cxx1112basic_stringIcSt11char_traitsIcESaIcEE4sizeEv(ptr noundef nonnull align 8 dereferenceable(32) %18) #5
  %20 = icmp ult i64 %19, 4
  br i1 %20, label %21, label %22

21:                                               ; preds = %16
  store i64 0, ptr %2, align 8
  br label %35

22:                                               ; preds = %16, %10
  %23 = load ptr, ptr %3, align 8, !tbaa !56
  %24 = getelementptr inbounds nuw %"struct.rocksdb::BlockCacheTraceRecord", ptr %23, i32 0, i32 15
  %25 = load i8, ptr %24, align 8, !tbaa !67, !range !63, !noundef !64
  %26 = trunc i8 %25 to i1
  call void @llvm.lifetime.start.p0(i64 16, ptr %4) #5
  br i1 %26, label %27, label %32

27:                                               ; preds = %22
  %28 = load ptr, ptr %3, align 8, !tbaa !56
  %29 = getelementptr inbounds nuw %"struct.rocksdb::BlockCacheTraceRecord", ptr %28, i32 0, i32 17
  call void @_ZN7rocksdb5SliceC2ERKNSt7__cxx1112basic_stringIcSt11char_traitsIcESaIcEEE(ptr noundef nonnull align 8 dereferenceable(16) %4, ptr noundef nonnull align 8 dereferenceable(32) %29)
  %30 = call noundef i64 @_ZN7rocksdb19GetInternalKeySeqnoERKNS_5SliceE(ptr noundef nonnull align 8 dereferenceable(16) %4)
  %31 = add i64 1, %30
  br label %33

32:                                               ; preds = %22
  br label %33

33:                                               ; preds = %32, %27
  %34 = phi i64 [ %31, %27 ], [ 0, %32 ]
  store i64 %34, ptr %2, align 8
  call void @llvm.lifetime.end.p0(i64 16, ptr %4) #5
  br label %35

35:                                               ; preds = %33, %21, %9
  %36 = load i64, ptr %2, align 8
  ret i64 %36
}