; Function Attrs: mustprogress nofree norecurse nosync nounwind willreturn memory(read, inaccessiblemem: none) uwtable
define noundef range(i64 0, 72057594037927937) i64 @_ZN7rocksdb21BlockCacheTraceHelper17GetSequenceNumberERKNS_21BlockCacheTraceRecordE(ptr noundef nonnull readonly align 8 captures(none) dereferenceable(185) %0) local_unnamed_addr #8 align 2 {
  %2 = getelementptr inbounds nuw i8, ptr %0, i64 112
  %3 = load i8, ptr %2, align 8, !tbaa !18
  %4 = add i8 %3, -1
  %5 = icmp ult i8 %4, 2
  br i1 %5, label %6, label %22

6:                                                ; preds = %1
  %7 = icmp eq i8 %3, 2
  %8 = getelementptr inbounds nuw i8, ptr %0, i64 144
  %9 = load i64, ptr %8, align 8
  %10 = icmp ult i64 %9, 4
  %or.cond = select i1 %7, i1 %10, i1 false
  br i1 %or.cond, label %22, label %11

11:                                               ; preds = %6
  %12 = getelementptr inbounds nuw i8, ptr %0, i64 128
  %13 = load i8, ptr %12, align 8, !tbaa !35, !range !36, !noundef !37
  %14 = trunc nuw i8 %13 to i1
  br i1 %14, label %15, label %22

15:                                               ; preds = %11
  %16 = getelementptr inbounds nuw i8, ptr %0, i64 136
  %17 = load ptr, ptr %16, align 8, !tbaa !11
  %18 = getelementptr inbounds nuw i8, ptr %17, i64 %9
  %19 = getelementptr inbounds i8, ptr %18, i64 -8
  %.0.copyload.i.i = load i64, ptr %19, align 1
  %20 = lshr i64 %.0.copyload.i.i, 8
  %21 = add nuw nsw i64 %20, 1
  br label %22

22:                                               ; preds = %6, %15, %11, %1
  %.0 = phi i64 [ 0, %1 ], [ %21, %15 ], [ 0, %11 ], [ 0, %6 ]
  ret i64 %.0
}